; Function Attrs: mustprogress nounwind uwtable
define void @_ZN3gmx32KeyValueTreeTransformRulesScopedD2Ev(ptr nocapture noundef nonnull align 8 dereferenceable(8) %0) unnamed_addr #6 align 2 {
  %2 = load ptr, ptr %0, align 8
  %.not.i = icmp eq ptr %2, null
  br i1 %.not.i, label %_ZNSt10unique_ptrIN3gmx32KeyValueTreeTransformRulesScoped4ImplESt14default_deleteIS2_EED2Ev.exit, label %_ZNKSt14default_deleteIN3gmx32KeyValueTreeTransformRulesScoped4ImplEEclEPS2_.exit.i

_ZNKSt14default_deleteIN3gmx32KeyValueTreeTransformRulesScoped4ImplEEclEPS2_.exit.i: ; preds = %1
  %3 = load ptr, ptr %2, align 8
  %4 = getelementptr inbounds i8, ptr %3, i64 24
  %5 = load ptr, ptr %4, align 8
  tail call void %5(ptr noundef nonnull align 8 dereferenceable(40) %2) #26
  br label %_ZNSt10unique_ptrIN3gmx32KeyValueTreeTransformRulesScoped4ImplESt14default_deleteIS2_EED2Ev.exit

_ZNSt10unique_ptrIN3gmx32KeyValueTreeTransformRulesScoped4ImplESt14default_deleteIS2_EED2Ev.exit: ; preds = %1, %_ZNKSt14default_deleteIN3gmx32KeyValueTreeTransformRulesScoped4ImplEEclEPS2_.exit.i
  store ptr null, ptr %0, align 8
  ret void
}